target datalayout = "e-m:e-p270:32:32-p271:32:32-p272:64:64-i64:64-i128:128-f80:128-n8:16:32:64-S128"
target triple = "x86_64-pc-linux-gnu"

%struct.auth_ops_t = type { ptr, ptr, ptr, ptr, ptr, ptr, ptr, ptr, ptr, ptr, ptr, ptr, ptr, ptr, ptr, ptr }
%struct.cred_wrapper_t = type { i32, [0 x i8] }

@ops = internal global ptr null, align 8
@.str.17 = private unnamed_addr constant [32 x i8] c"%s: pthread_rwlock_unlock(): %m\00", align 1
@.str.19 = private unnamed_addr constant [32 x i8] c"%s: pthread_rwlock_rdlock(): %m\00", align 1
@__func__.auth_g_create = private unnamed_addr constant [14 x i8] c"auth_g_create\00", align 1
@context_lock = internal global { { i32, i32, i32, i32, i32, i32, i32, i32, i8, [7 x i8], i64, i32, [4 x i8] } } zeroinitializer, align 8

; Function Attrs: nounwind uwtable
define dso_local ptr @auth_g_create(i32 noundef %0, ptr noundef %1, i32 noundef %2, ptr noundef %3, i32 noundef %4) #0 {
  %6 = alloca ptr, align 8
  %7 = alloca i32, align 4
  %8 = alloca ptr, align 8
  %9 = alloca i32, align 4
  %10 = alloca ptr, align 8
  %11 = alloca i32, align 4
  %12 = alloca ptr, align 8
  %13 = alloca i32, align 4
  %14 = alloca i32, align 4
  %15 = alloca i32, align 4
  store i32 %0, ptr %7, align 4
  store ptr %1, ptr %8, align 8
  store i32 %2, ptr %9, align 4
  store ptr %3, ptr %10, align 8
  store i32 %4, ptr %11, align 4
  call void @llvm.lifetime.start.p0(i64 8, ptr %12) #6
  %16 = load i32, ptr %9, align 4
  %17 = icmp eq i32 %16, 99
  br i1 %17, label %18, label %19

18:                                               ; preds = %5
  store ptr null, ptr %6, align 8
  store i32 1, ptr %13, align 4
  br label %59

19:                                               ; preds = %5
  br label %20

20:                                               ; preds = %19
  call void @llvm.lifetime.start.p0(i64 4, ptr %14) #6
  %21 = call i32 @pthread_rwlock_rdlock(ptr noundef @context_lock) #6
  store i32 %21, ptr %14, align 4
  %22 = load i32, ptr %14, align 4
  %23 = icmp ne i32 %22, 0
  br i1 %23, label %24, label %27

24:                                               ; preds = %20
  %25 = load i32, ptr %14, align 4
  %26 = call ptr @__errno_location() #8
  store i32 %25, ptr %26, align 4
  call void (ptr, ...) @fatal_abort(ptr noundef @.str.19, ptr noundef @__func__.auth_g_create) #7
  unreachable

27:                                               ; preds = %20
  call void @llvm.lifetime.end.p0(i64 4, ptr %14) #6
  br label %28

28:                                               ; preds = %27
  br label %29

29:                                               ; preds = %28
  %30 = load ptr, ptr @ops, align 8
  %31 = load i32, ptr %7, align 4
  %32 = sext i32 %31 to i64
  %33 = getelementptr inbounds %struct.auth_ops_t, ptr %30, i64 %32
  %34 = getelementptr inbounds nuw %struct.auth_ops_t, ptr %33, i32 0, i32 3
  %35 = load ptr, ptr %34, align 8
  %36 = load ptr, ptr %8, align 8
  %37 = load i32, ptr %9, align 4
  %38 = load ptr, ptr %10, align 8
  %39 = load i32, ptr %11, align 4
  %40 = call ptr %35(ptr noundef %36, i32 noundef %37, ptr noundef %38, i32 noundef %39)
  store ptr %40, ptr %12, align 8
  br label %41

41:                                               ; preds = %29
  call void @llvm.lifetime.start.p0(i64 4, ptr %15) #6
  %42 = call i32 @pthread_rwlock_unlock(ptr noundef @context_lock) #6
  store i32 %42, ptr %15, align 4
  %43 = load i32, ptr %15, align 4
  %44 = icmp ne i32 %43, 0
  br i1 %44, label %45, label %48

45:                                               ; preds = %41
  %46 = load i32, ptr %15, align 4
  %47 = call ptr @__errno_location() #8
  store i32 %46, ptr %47, align 4
  call void (ptr, ...) @fatal_abort(ptr noundef @.str.17, ptr noundef @__func__.auth_g_create) #7
  unreachable

48:                                               ; preds = %41
  call void @llvm.lifetime.end.p0(i64 4, ptr %15) #6
  br label %49

49:                                               ; preds = %48
  br label %50

50:                                               ; preds = %49
  %51 = load ptr, ptr %12, align 8
  %52 = icmp ne ptr %51, null
  br i1 %52, label %53, label %57

53:                                               ; preds = %50
  %54 = load i32, ptr %7, align 4
  %55 = load ptr, ptr %12, align 8
  %56 = getelementptr inbounds nuw %struct.cred_wrapper_t, ptr %55, i32 0, i32 0
  store i32 %54, ptr %56, align 4
  br label %57

57:                                               ; preds = %53, %50
  %58 = load ptr, ptr %12, align 8
  store ptr %58, ptr %6, align 8
  store i32 1, ptr %13, align 4
  br label %59

59:                                               ; preds = %57, %18
  call void @llvm.lifetime.end.p0(i64 8, ptr %12) #6
  %60 = load ptr, ptr %6, align 8
  ret ptr %60
}