; Function Attrs: nounwind uwtable
define dso_local ptr @auth_g_create(i32 noundef %0, ptr noundef %1, i32 noundef %2, ptr noundef %3, i32 noundef %4) local_unnamed_addr #2 {
  %6 = icmp eq i32 %2, 99
  br i1 %6, label %22, label %7

7:                                                ; preds = %5
  %8 = tail call i32 @pthread_rwlock_rdlock(ptr noundef nonnull @context_lock) #12
  %.not = icmp eq i32 %8, 0
  br i1 %.not, label %11, label %9

9:                                                ; preds = %7
  %10 = tail call ptr @__errno_location() #13
  store i32 %8, ptr %10, align 4
  tail call void (ptr, ...) @fatal_abort(ptr noundef nonnull @.str.19, ptr noundef nonnull @__func__.auth_g_create) #11
  unreachable

11:                                               ; preds = %7
  %12 = load ptr, ptr @ops, align 8
  %13 = sext i32 %0 to i64
  %14 = getelementptr inbounds %struct.auth_ops_t, ptr %12, i64 %13, i32 3
  %15 = load ptr, ptr %14, align 8
  %16 = tail call ptr %15(ptr noundef %1, i32 noundef %2, ptr noundef %3, i32 noundef %4) #12
  %17 = tail call i32 @pthread_rwlock_unlock(ptr noundef nonnull @context_lock) #12
  %.not18 = icmp eq i32 %17, 0
  br i1 %.not18, label %20, label %18

18:                                               ; preds = %11
  %19 = tail call ptr @__errno_location() #13
  store i32 %17, ptr %19, align 4
  tail call void (ptr, ...) @fatal_abort(ptr noundef nonnull @.str.17, ptr noundef nonnull @__func__.auth_g_create) #11
  unreachable

20:                                               ; preds = %11
  %.not19 = icmp eq ptr %16, null
  br i1 %.not19, label %22, label %21

21:                                               ; preds = %20
  store i32 %0, ptr %16, align 4
  br label %22

22:                                               ; preds = %20, %21, %5
  %.0 = phi ptr [ null, %5 ], [ %16, %21 ], [ null, %20 ]
  ret ptr %.0
}